target datalayout = "e-m:e-p270:32:32-p271:32:32-p272:64:64-i64:64-i128:128-f80:128-n8:16:32:64-S128"
target triple = "x86_64-unknown-linux-gnu"

; Function Attrs: mustprogress uwtable
define hidden void @_ZN22CatmullClarkSubdivider9SubdivideEP6aiMeshRS1_jb(ptr noundef nonnull align 8 dereferenceable(8) %this, ptr noundef %mesh, ptr noundef nonnull align 8 dereferenceable(8) %out, i32 noundef %num, i1 noundef zeroext %discard_input) unnamed_addr #2 align 2 {
entry:
  %this.addr = alloca ptr, align 8
  %mesh.addr = alloca ptr, align 8
  %out.addr = alloca ptr, align 8
  %num.addr = alloca i32, align 4
  %discard_input.addr = alloca i8, align 1
  store ptr %this, ptr %this.addr, align 8
  store ptr %mesh, ptr %mesh.addr, align 8
  store ptr %out, ptr %out.addr, align 8
  store i32 %num, ptr %num.addr, align 4
  %frombool = zext i1 %discard_input to i8
  store i8 %frombool, ptr %discard_input.addr, align 1
  %this1 = load ptr, ptr %this.addr, align 8
  %0 = load ptr, ptr %out.addr, align 8
  %1 = load i32, ptr %num.addr, align 4
  %2 = load i8, ptr %discard_input.addr, align 1
  %tobool = trunc i8 %2 to i1
  %vtable = load ptr, ptr %this1, align 8
  %vfn = getelementptr inbounds ptr, ptr %vtable, i64 3
  %3 = load ptr, ptr %vfn, align 8
  call void %3(ptr noundef nonnull align 8 dereferenceable(8) %this1, ptr noundef %mesh.addr, i64 noundef 1, ptr noundef %0, i32 noundef %1, i1 noundef zeroext %tobool)
  ret void
}