; Function Attrs: mustprogress uwtable
define hidden void @_ZN22CatmullClarkSubdivider9SubdivideEP6aiMeshRS1_jb(ptr noundef nonnull align 8 dereferenceable(8) %this, ptr noundef %mesh, ptr noundef nonnull align 8 dereferenceable(8) %out, i32 noundef %num, i1 noundef zeroext %discard_input) unnamed_addr #1 align 2 {
entry:
  %mesh.addr = alloca ptr, align 8
  store ptr %mesh, ptr %mesh.addr, align 8
  %vtable = load ptr, ptr %this, align 8
  %vfn = getelementptr inbounds i8, ptr %vtable, i64 24
  %0 = load ptr, ptr %vfn, align 8
  call void %0(ptr noundef nonnull align 8 dereferenceable(8) %this, ptr noundef nonnull %mesh.addr, i64 noundef 1, ptr noundef nonnull %out, i32 noundef %num, i1 noundef zeroext %discard_input)
  ret void
}